target datalayout = "e-m:e-p270:32:32-p271:32:32-p272:64:64-i64:64-i128:128-f80:128-n8:16:32:64-S128"
target triple = "x86_64-unknown-linux-gnu"

%"class.v8::Local" = type { %"class.v8::LocalBase" }
%"class.v8::LocalBase" = type { %"class.v8::IndirectHandleBase" }
%"class.v8::IndirectHandleBase" = type { ptr }
%"struct.node::async_context" = type { double, double }
%"class.node::AsyncResource" = type { ptr, ptr, %"class.v8::Global", %"struct.node::async_context" }
%"class.v8::Global" = type { %"class.v8::PersistentBase" }
%"class.v8::PersistentBase" = type { %"class.v8::IndirectHandleBase" }
%"class.node::Environment" = type { %"class.node::MemoryRetainer", %"class.std::unordered_multimap", %"class.std::__cxx11::list", ptr, ptr, %struct.uv_timer_s, %struct.uv_check_s, %struct.uv_idle_s, %struct.uv_prepare_s, %struct.uv_check_s, %struct.uv_async_s, i64, %"struct.std::atomic", %"struct.std::atomic", %"class.node::AsyncHooks", %"class.node::ImmediateInfo", %"class.node::AliasedBufferBase.25", %"class.node::TickInfo", %"class.node::permission::Permission", i64, %"class.std::shared_ptr", i8, i8, i8, i8, i8, i8, i64, %"class.std::vector.50", %"class.std::unordered_set", %"class.std::unique_ptr", %"class.std::unique_ptr.76", %"class.std::__cxx11::basic_string", %"class.std::__cxx11::basic_string", %"class.std::__cxx11::basic_string", i64, %"class.std::unique_ptr.88", %"class.std::__cxx11::basic_string", %"class.std::__cxx11::basic_string", i64, %"class.std::shared_ptr.96", %"class.std::shared_ptr.99", %"class.std::vector.102", %"class.std::vector.102", %"class.std::__cxx11::basic_string", i8, i32, i32, i8, i32, i32, i32, i32, %"class.node::AliasedBufferBase.25", %"class.node::AliasedBufferBase.15", i32, %"class.std::unique_ptr.107", %"class.node::AliasedBufferBase.25", i64, double, i64, %"class.std::unique_ptr.115", i8, i64, i64, %"class.std::unordered_set.123", %"class.std::unique_ptr.143", i8, %"class.std::__cxx11::list.151", %"class.node::ListHead", %"class.node::ListHead.156", %"class.std::__cxx11::list.158", i32, i32, %"class.node::EnabledDebugList", %"class.std::vector.163", %"class.std::__cxx11::list.168", %"class.node::MutexBase", %"class.std::__cxx11::list.173", %"class.node::CallbackQueue", %"class.node::MutexBase", %"class.node::CallbackQueue", %"class.node::CallbackQueue", i8, %"struct.std::atomic.188", %"class.node::CleanupQueue", i8, %"class.std::unordered_set.206", %"class.std::function", %"class.std::unique_ptr.221", %"class.node::builtins::BuiltinLoader", %"class.std::function.235", %"class.std::unordered_map.237" }
%"class.node::MemoryRetainer" = type { ptr }
%"class.std::unordered_multimap" = type { %"class.std::_Hashtable" }
%"class.std::_Hashtable" = type { ptr, i64, %"struct.std::__detail::_Hash_node_base", i64, %"struct.std::__detail::_Prime_rehash_policy", ptr }
%"struct.std::__detail::_Hash_node_base" = type { ptr }
%"struct.std::__detail::_Prime_rehash_policy" = type { float, i64 }
%"class.std::__cxx11::list" = type { %"class.std::__cxx11::_List_base" }
%"class.std::__cxx11::_List_base" = type { %"struct.std::__cxx11::_List_base<node::binding::DLib, std::allocator<node::binding::DLib>>::_List_impl" }
%"struct.std::__cxx11::_List_base<node::binding::DLib, std::allocator<node::binding::DLib>>::_List_impl" = type { %"struct.std::__detail::_List_node_header" }
%"struct.std::__detail::_List_node_header" = type { %"struct.std::__detail::_List_node_base", i64 }
%"struct.std::__detail::_List_node_base" = type { ptr, ptr }
%struct.uv_timer_s = type { ptr, ptr, i32, ptr, %struct.uv__queue, %union.anon, ptr, i32, ptr, [3 x ptr], i64, i64, i64 }
%struct.uv__queue = type { ptr, ptr }
%union.anon = type { [4 x ptr] }
%struct.uv_idle_s = type { ptr, ptr, i32, ptr, %struct.uv__queue, %union.anon.10, ptr, i32, ptr, %struct.uv__queue }
%union.anon.10 = type { [4 x ptr] }
%struct.uv_prepare_s = type { ptr, ptr, i32, ptr, %struct.uv__queue, %union.anon.11, ptr, i32, ptr, %struct.uv__queue }
%union.anon.11 = type { [4 x ptr] }
%struct.uv_check_s = type { ptr, ptr, i32, ptr, %struct.uv__queue, %union.anon.9, ptr, i32, ptr, %struct.uv__queue }
%union.anon.9 = type { [4 x ptr] }
%struct.uv_async_s = type { ptr, ptr, i32, ptr, %struct.uv__queue, %union.anon.12, ptr, i32, ptr, %struct.uv__queue, i32 }
%union.anon.12 = type { [4 x ptr] }
%"struct.std::atomic" = type { %"struct.std::__atomic_base" }
%"struct.std::__atomic_base" = type { i8 }
%"class.node::AsyncHooks" = type { %"class.node::MemoryRetainer", %"class.node::AliasedBufferBase", %"class.node::AliasedBufferBase.15", %"class.node::AliasedBufferBase", %"class.v8::Global.18", %"class.std::vector", ptr, %"struct.std::array" }
%"class.node::AliasedBufferBase" = type { %"class.node::MemoryRetainer", ptr, i64, i64, ptr, %"class.v8::Global.13", ptr }
%"class.v8::Global.13" = type { %"class.v8::PersistentBase.14" }
%"class.v8::PersistentBase.14" = type { %"class.v8::IndirectHandleBase" }
%"class.v8::Global.18" = type { %"class.v8::PersistentBase.19" }
%"class.v8::PersistentBase.19" = type { %"class.v8::IndirectHandleBase" }
%"class.std::vector" = type { %"struct.std::_Vector_base" }
%"struct.std::_Vector_base" = type { %"struct.std::_Vector_base<v8::Local<v8::Object>, std::allocator<v8::Local<v8::Object>>>::_Vector_impl" }
%"struct.std::_Vector_base<v8::Local<v8::Object>, std::allocator<v8::Local<v8::Object>>>::_Vector_impl" = type { %"struct.std::_Vector_base<v8::Local<v8::Object>, std::allocator<v8::Local<v8::Object>>>::_Vector_impl_data" }
%"struct.std::_Vector_base<v8::Local<v8::Object>, std::allocator<v8::Local<v8::Object>>>::_Vector_impl_data" = type { ptr, ptr, ptr }
%"struct.std::array" = type { [4 x %"class.v8::Global.23"] }
%"class.v8::Global.23" = type { %"class.v8::PersistentBase.24" }
%"class.v8::PersistentBase.24" = type { %"class.v8::IndirectHandleBase" }
%"class.node::ImmediateInfo" = type { %"class.node::MemoryRetainer", %"class.node::AliasedBufferBase.15" }
%"class.node::TickInfo" = type { %"class.node::MemoryRetainer", %"class.node::AliasedBufferBase.28" }
%"class.node::AliasedBufferBase.28" = type { %"class.node::MemoryRetainer", ptr, i64, i64, ptr, %"class.v8::Global.29", ptr }
%"class.v8::Global.29" = type { %"class.v8::PersistentBase.30" }
%"class.v8::PersistentBase.30" = type { %"class.v8::IndirectHandleBase" }
%"class.node::permission::Permission" = type <{ %"class.std::unordered_map", i8, [7 x i8] }>
%"class.std::unordered_map" = type { %"class.std::_Hashtable.31" }
%"class.std::_Hashtable.31" = type { ptr, i64, %"struct.std::__detail::_Hash_node_base", i64, %"struct.std::__detail::_Prime_rehash_policy", ptr }
%"class.std::shared_ptr" = type { %"class.std::__shared_ptr" }
%"class.std::__shared_ptr" = type { ptr, %"class.std::__shared_count" }
%"class.std::__shared_count" = type { ptr }
%"class.std::vector.50" = type { %"struct.std::_Vector_base.51" }
%"struct.std::_Vector_base.51" = type { %"struct.std::_Vector_base<double, std::allocator<double>>::_Vector_impl" }
%"struct.std::_Vector_base<double, std::allocator<double>>::_Vector_impl" = type { %"struct.std::_Vector_base<double, std::allocator<double>>::_Vector_impl_data" }
%"struct.std::_Vector_base<double, std::allocator<double>>::_Vector_impl_data" = type { ptr, ptr, ptr }
%"class.std::unordered_set" = type { %"class.std::_Hashtable.55" }
%"class.std::_Hashtable.55" = type { ptr, i64, %"struct.std::__detail::_Hash_node_base", i64, %"struct.std::__detail::_Prime_rehash_policy", ptr }
%"class.std::unique_ptr" = type { %"struct.std::__uniq_ptr_data" }
%"struct.std::__uniq_ptr_data" = type { %"class.std::__uniq_ptr_impl" }
%"class.std::__uniq_ptr_impl" = type { %"class.std::tuple" }
%"class.std::tuple" = type { %"struct.std::_Tuple_impl" }
%"struct.std::_Tuple_impl" = type { %"struct.std::_Head_base.75" }
%"struct.std::_Head_base.75" = type { ptr }
%"class.std::unique_ptr.76" = type { %"struct.std::__uniq_ptr_data.77" }
%"struct.std::__uniq_ptr_data.77" = type { %"class.std::__uniq_ptr_impl.78" }
%"class.std::__uniq_ptr_impl.78" = type { %"class.std::tuple.79" }
%"class.std::tuple.79" = type { %"struct.std::_Tuple_impl.80" }
%"struct.std::_Tuple_impl.80" = type { %"struct.std::_Head_base.83" }
%"struct.std::_Head_base.83" = type { ptr }
%"class.std::unique_ptr.88" = type { %"struct.std::__uniq_ptr_data.89" }
%"struct.std::__uniq_ptr_data.89" = type { %"class.std::__uniq_ptr_impl.90" }
%"class.std::__uniq_ptr_impl.90" = type { %"class.std::tuple.91" }
%"class.std::tuple.91" = type { %"struct.std::_Tuple_impl.92" }
%"struct.std::_Tuple_impl.92" = type { %"struct.std::_Head_base.95" }
%"struct.std::_Head_base.95" = type { ptr }
%"class.std::shared_ptr.96" = type { %"class.std::__shared_ptr.97" }
%"class.std::__shared_ptr.97" = type { ptr, %"class.std::__shared_count" }
%"class.std::shared_ptr.99" = type { %"class.std::__shared_ptr.100" }
%"class.std::__shared_ptr.100" = type { ptr, %"class.std::__shared_count" }
%"class.std::vector.102" = type { %"struct.std::_Vector_base.103" }
%"struct.std::_Vector_base.103" = type { %"struct.std::_Vector_base<std::__cxx11::basic_string<char>, std::allocator<std::__cxx11::basic_string<char>>>::_Vector_impl" }
%"struct.std::_Vector_base<std::__cxx11::basic_string<char>, std::allocator<std::__cxx11::basic_string<char>>>::_Vector_impl" = type { %"struct.std::_Vector_base<std::__cxx11::basic_string<char>, std::allocator<std::__cxx11::basic_string<char>>>::_Vector_impl_data" }
%"struct.std::_Vector_base<std::__cxx11::basic_string<char>, std::allocator<std::__cxx11::basic_string<char>>>::_Vector_impl_data" = type { ptr, ptr, ptr }
%"class.std::__cxx11::basic_string" = type { %"struct.std::__cxx11::basic_string<char>::_Alloc_hider", i64, %union.anon.87 }
%"struct.std::__cxx11::basic_string<char>::_Alloc_hider" = type { ptr }
%union.anon.87 = type { i64, [8 x i8] }
%"class.node::AliasedBufferBase.15" = type { %"class.node::MemoryRetainer", ptr, i64, i64, ptr, %"class.v8::Global.16", ptr }
%"class.v8::Global.16" = type { %"class.v8::PersistentBase.17" }
%"class.v8::PersistentBase.17" = type { %"class.v8::IndirectHandleBase" }
%"class.std::unique_ptr.107" = type { %"struct.std::__uniq_ptr_data.108" }
%"struct.std::__uniq_ptr_data.108" = type { %"class.std::__uniq_ptr_impl.109" }
%"class.std::__uniq_ptr_impl.109" = type { %"class.std::tuple.110" }
%"class.std::tuple.110" = type { %"struct.std::_Tuple_impl.111" }
%"struct.std::_Tuple_impl.111" = type { %"struct.std::_Head_base.114" }
%"struct.std::_Head_base.114" = type { ptr }
%"class.node::AliasedBufferBase.25" = type { %"class.node::MemoryRetainer", ptr, i64, i64, ptr, %"class.v8::Global.26", ptr }
%"class.v8::Global.26" = type { %"class.v8::PersistentBase.27" }
%"class.v8::PersistentBase.27" = type { %"class.v8::IndirectHandleBase" }
%"class.std::unique_ptr.115" = type { %"struct.std::__uniq_ptr_data.116" }
%"struct.std::__uniq_ptr_data.116" = type { %"class.std::__uniq_ptr_impl.117" }
%"class.std::__uniq_ptr_impl.117" = type { %"class.std::tuple.118" }
%"class.std::tuple.118" = type { %"struct.std::_Tuple_impl.119" }
%"struct.std::_Tuple_impl.119" = type { %"struct.std::_Head_base.122" }
%"struct.std::_Head_base.122" = type { ptr }
%"class.std::unordered_set.123" = type { %"class.std::_Hashtable.124" }
%"class.std::_Hashtable.124" = type { ptr, i64, %"struct.std::__detail::_Hash_node_base", i64, %"struct.std::__detail::_Prime_rehash_policy", ptr }
%"class.std::unique_ptr.143" = type { %"struct.std::__uniq_ptr_data.144" }
%"struct.std::__uniq_ptr_data.144" = type { %"class.std::__uniq_ptr_impl.145" }
%"class.std::__uniq_ptr_impl.145" = type { %"class.std::tuple.146" }
%"class.std::tuple.146" = type { %"struct.std::_Tuple_impl.147" }
%"struct.std::_Tuple_impl.147" = type { %"struct.std::_Head_base.150" }
%"struct.std::_Head_base.150" = type { ptr }
%"class.std::__cxx11::list.151" = type { %"class.std::__cxx11::_List_base.152" }
%"class.std::__cxx11::_List_base.152" = type { %"struct.std::__cxx11::_List_base<node::DeserializeRequest, std::allocator<node::DeserializeRequest>>::_List_impl" }
%"struct.std::__cxx11::_List_base<node::DeserializeRequest, std::allocator<node::DeserializeRequest>>::_List_impl" = type { %"struct.std::__detail::_List_node_header" }
%"class.node::ListHead" = type { %"class.node::ListNode" }
%"class.node::ListNode" = type { ptr, ptr }
%"class.node::ListHead.156" = type { %"class.node::ListNode.157" }
%"class.node::ListNode.157" = type { ptr, ptr }
%"class.std::__cxx11::list.158" = type { %"class.std::__cxx11::_List_base.159" }
%"class.std::__cxx11::_List_base.159" = type { %"struct.std::__cxx11::_List_base<node::Environment::HandleCleanup, std::allocator<node::Environment::HandleCleanup>>::_List_impl" }
%"struct.std::__cxx11::_List_base<node::Environment::HandleCleanup, std::allocator<node::Environment::HandleCleanup>>::_List_impl" = type { %"struct.std::__detail::_List_node_header" }
%"class.node::EnabledDebugList" = type { [75 x i8] }
%"class.std::vector.163" = type { %"struct.std::_Vector_base.164" }
%"struct.std::_Vector_base.164" = type { %"struct.std::_Vector_base<v8::Global<v8::Context>, std::allocator<v8::Global<v8::Context>>>::_Vector_impl" }
%"struct.std::_Vector_base<v8::Global<v8::Context>, std::allocator<v8::Global<v8::Context>>>::_Vector_impl" = type { %"struct.std::_Vector_base<v8::Global<v8::Context>, std::allocator<v8::Global<v8::Context>>>::_Vector_impl_data" }
%"struct.std::_Vector_base<v8::Global<v8::Context>, std::allocator<v8::Global<v8::Context>>>::_Vector_impl_data" = type { ptr, ptr, ptr }
%"class.std::__cxx11::list.168" = type { %"class.std::__cxx11::_List_base.169" }
%"class.std::__cxx11::_List_base.169" = type { %"struct.std::__cxx11::_List_base<node::node_module, std::allocator<node::node_module>>::_List_impl" }
%"struct.std::__cxx11::_List_base<node::node_module, std::allocator<node::node_module>>::_List_impl" = type { %"struct.std::__detail::_List_node_header" }
%"class.std::__cxx11::list.173" = type { %"class.std::__cxx11::_List_base.174" }
%"class.std::__cxx11::_List_base.174" = type { %"struct.std::__cxx11::_List_base<node::Environment::ExitCallback, std::allocator<node::Environment::ExitCallback>>::_List_impl" }
%"struct.std::__cxx11::_List_base<node::Environment::ExitCallback, std::allocator<node::Environment::ExitCallback>>::_List_impl" = type { %"struct.std::__detail::_List_node_header" }
%"class.node::MutexBase" = type { %union.pthread_mutex_t }
%union.pthread_mutex_t = type { %struct.__pthread_mutex_s }
%struct.__pthread_mutex_s = type { i32, i32, i32, i32, i32, i16, i16, %struct.__pthread_internal_list }
%struct.__pthread_internal_list = type { ptr, ptr }
%"class.node::CallbackQueue" = type { %"struct.std::atomic.178", %"class.std::unique_ptr.180", ptr }
%"struct.std::atomic.178" = type { %"struct.std::__atomic_base.179" }
%"struct.std::__atomic_base.179" = type { i64 }
%"class.std::unique_ptr.180" = type { %"struct.std::__uniq_ptr_data.181" }
%"struct.std::__uniq_ptr_data.181" = type { %"class.std::__uniq_ptr_impl.182" }
%"class.std::__uniq_ptr_impl.182" = type { %"class.std::tuple.183" }
%"class.std::tuple.183" = type { %"struct.std::_Tuple_impl.184" }
%"struct.std::_Tuple_impl.184" = type { %"struct.std::_Head_base.187" }
%"struct.std::_Head_base.187" = type { ptr }
%"struct.std::atomic.188" = type { %"struct.std::__atomic_base.189" }
%"struct.std::__atomic_base.189" = type { ptr }
%"class.node::CleanupQueue" = type { %"class.node::MemoryRetainer", %"class.std::unordered_set.190", i64 }
%"class.std::unordered_set.190" = type { %"class.std::_Hashtable.191" }
%"class.std::_Hashtable.191" = type { ptr, i64, %"struct.std::__detail::_Hash_node_base", i64, %"struct.std::__detail::_Prime_rehash_policy", ptr }
%"class.std::unordered_set.206" = type { %"class.std::_Hashtable.207" }
%"class.std::_Hashtable.207" = type { ptr, i64, %"struct.std::__detail::_Hash_node_base", i64, %"struct.std::__detail::_Prime_rehash_policy", ptr }
%"class.std::function" = type { %"class.std::_Function_base", ptr }
%"class.std::_Function_base" = type { %"union.std::_Any_data", ptr }
%"union.std::_Any_data" = type { %"union.std::_Nocopy_types" }
%"union.std::_Nocopy_types" = type { { i64, i64 } }
%"class.std::unique_ptr.221" = type { %"struct.std::__uniq_ptr_data.222" }
%"struct.std::__uniq_ptr_data.222" = type { %"class.std::__uniq_ptr_impl.223" }
%"class.std::__uniq_ptr_impl.223" = type { %"class.std::tuple.224" }
%"class.std::tuple.224" = type { %"struct.std::_Tuple_impl.225" }
%"struct.std::_Tuple_impl.225" = type { %"struct.std::_Head_base.228" }
%"struct.std::_Head_base.228" = type { ptr }
%"class.node::builtins::BuiltinLoader" = type { %"class.node::ThreadsafeCopyOnWrite", %"class.node::UnionBytes", %"class.std::shared_ptr.232" }
%"class.node::ThreadsafeCopyOnWrite" = type { %"class.node::CopyOnWrite" }
%"class.node::CopyOnWrite" = type { %"class.std::shared_ptr.229" }
%"class.std::shared_ptr.229" = type { %"class.std::__shared_ptr.230" }
%"class.std::__shared_ptr.230" = type { ptr, %"class.std::__shared_count" }
%"class.node::UnionBytes" = type { ptr, ptr }
%"class.std::shared_ptr.232" = type { %"class.std::__shared_ptr.233" }
%"class.std::__shared_ptr.233" = type { ptr, %"class.std::__shared_count" }
%"class.std::function.235" = type { %"class.std::_Function_base", ptr }
%"class.std::unordered_map.237" = type { %"class.std::_Hashtable.238" }
%"class.std::_Hashtable.238" = type { ptr, i64, %"struct.std::__detail::_Hash_node_base", i64, %"struct.std::__detail::_Prime_rehash_policy", ptr }

; Function Attrs: mustprogress nounwind uwtable
define linkonce_odr dso_local noundef ptr @_ZNK4node11Environment7isolateEv(ptr noundef nonnull align 8 dereferenceable(2872) %this) #4 comdat align 2 {
entry:
  %this.addr = alloca ptr, align 8
  store ptr %this, ptr %this.addr, align 8
  %this1 = load ptr, ptr %this.addr, align 8
  %isolate_ = getelementptr inbounds %"class.node::Environment", ptr %this1, i32 0, i32 3
  %0 = load ptr, ptr %isolate_, align 8
  ret ptr %0
}

; Function Attrs: mustprogress nounwind uwtable
define dso_local void @_ZN4node13AsyncResource13CallbackScopeC2EPS0_(ptr noundef nonnull align 8 dereferenceable(56) %this, ptr noundef %res) unnamed_addr #4 align 2 {
entry:
  %this.addr.i.i26 = alloca ptr, align 8
  %location.addr.i.i = alloca ptr, align 8
  %this.addr.i27 = alloca ptr, align 8
  %location.addr.i = alloca ptr, align 8
  %this.addr.i24 = alloca ptr, align 8
  %retval.i22 = alloca %"class.v8::LocalBase", align 8
  %isolate.addr.i23 = alloca ptr, align 8
  %value.addr.i = alloca i64, align 8
  %this.addr.i20 = alloca ptr, align 8
  %this.addr.i18 = alloca ptr, align 8
  %other.addr.i = alloca ptr, align 8
  %value.addr.i6.i = alloca ptr, align 8
  %value.addr.i.i = alloca ptr, align 8
  %retval.i15 = alloca %"class.v8::LocalBase", align 8
  %isolate.addr.i16 = alloca ptr, align 8
  %that.addr.i17 = alloca ptr, align 8
  %retval.i12 = alloca %"class.v8::Local", align 8
  %isolate.addr.i13 = alloca ptr, align 8
  %that.addr.i14 = alloca ptr, align 8
  %ref.tmp.i = alloca %"class.v8::LocalBase", align 8
  %slot.addr.i.i = alloca ptr, align 8
  %this.addr.i.i.i = alloca ptr, align 8
  %this.addr.i.i = alloca ptr, align 8
  %retval.i10 = alloca %"class.v8::Local", align 8
  %isolate.addr.i11 = alloca ptr, align 8
  %that.addr.i = alloca ptr, align 8
  %retval.i = alloca %"class.v8::Local", align 8
  %this.addr.i = alloca ptr, align 8
  %isolate.addr.i = alloca ptr, align 8
  %this.addr = alloca ptr, align 8
  %res.addr = alloca ptr, align 8
  %agg.tmp = alloca %"class.v8::Local", align 8
  %agg.tmp6 = alloca %"struct.node::async_context", align 8
  store ptr %this, ptr %this.addr, align 8
  store ptr %res, ptr %res.addr, align 8
  %this1 = load ptr, ptr %this.addr, align 8
  %0 = load ptr, ptr %res.addr, align 8
  %env_ = getelementptr inbounds %"class.node::AsyncResource", ptr %0, i32 0, i32 1
  %1 = load ptr, ptr %env_, align 8
  %2 = load ptr, ptr %res.addr, align 8
  %resource_ = getelementptr inbounds %"class.node::AsyncResource", ptr %2, i32 0, i32 2
  %3 = load ptr, ptr %res.addr, align 8
  %env_2 = getelementptr inbounds %"class.node::AsyncResource", ptr %3, i32 0, i32 1
  %4 = load ptr, ptr %env_2, align 8
  %call = call noundef ptr @_ZNK4node11Environment7isolateEv(ptr noundef nonnull align 8 dereferenceable(2872) %4)
  store ptr %resource_, ptr %this.addr.i, align 8
  store ptr %call, ptr %isolate.addr.i, align 8
  %this1.i = load ptr, ptr %this.addr.i, align 8
  %5 = load ptr, ptr %isolate.addr.i, align 8
  store ptr %5, ptr %isolate.addr.i11, align 8
  store ptr %this1.i, ptr %that.addr.i, align 8
  %6 = load ptr, ptr %isolate.addr.i11, align 8
  %7 = load ptr, ptr %that.addr.i, align 8
  store ptr %7, ptr %this.addr.i.i, align 8
  %this1.i.i = load ptr, ptr %this.addr.i.i, align 8
  store ptr %this1.i.i, ptr %this.addr.i.i.i, align 8
  %this1.i.i.i = load ptr, ptr %this.addr.i.i.i, align 8
  %8 = load ptr, ptr %this1.i.i.i, align 8
  store ptr %8, ptr %slot.addr.i.i, align 8
  %9 = load ptr, ptr %slot.addr.i.i, align 8
  store ptr %6, ptr %isolate.addr.i13, align 8
  store ptr %9, ptr %that.addr.i14, align 8
  %10 = load ptr, ptr %isolate.addr.i13, align 8
  %11 = load ptr, ptr %that.addr.i14, align 8
  store ptr %10, ptr %isolate.addr.i16, align 8
  store ptr %11, ptr %that.addr.i17, align 8
  %12 = load ptr, ptr %that.addr.i17, align 8
  store ptr %12, ptr %value.addr.i.i, align 8
  %13 = load ptr, ptr %value.addr.i.i, align 8
  %14 = ptrtoint ptr %13 to i64
  %cmp.i.i = icmp eq i64 %14, 0
  br i1 %cmp.i.i, label %if.then.i, label %if.end.i

if.then.i:                                        ; preds = %entry
  call void @llvm.memset.p0.i64(ptr align 8 %retval.i15, i8 0, i64 8, i1 false)
  store ptr %retval.i15, ptr %this.addr.i20, align 8
  %this1.i21 = load ptr, ptr %this.addr.i20, align 8
  store ptr %this1.i21, ptr %this.addr.i24, align 8
  %this1.i25 = load ptr, ptr %this.addr.i24, align 8
  store ptr null, ptr %this1.i25, align 8
  br label %_ZN2v89LocalBaseINS_6ObjectEE3NewEPNS_7IsolateEPS1_.exit

if.end.i:                                         ; preds = %entry
  %15 = load ptr, ptr %isolate.addr.i16, align 8
  %16 = load ptr, ptr %that.addr.i17, align 8
  store ptr %16, ptr %value.addr.i6.i, align 8
  %17 = load ptr, ptr %value.addr.i6.i, align 8
  %18 = load i64, ptr %17, align 8
  store ptr %15, ptr %isolate.addr.i23, align 8
  store i64 %18, ptr %value.addr.i, align 8
  %19 = load ptr, ptr %isolate.addr.i23, align 8
  %20 = load i64, ptr %value.addr.i, align 8
  %call.i = call noundef ptr @_ZN2v811HandleScope12CreateHandleEPNS_8internal7IsolateEm(ptr noundef %19, i64 noundef %20) #3
  store ptr %retval.i22, ptr %this.addr.i27, align 8
  store ptr %call.i, ptr %location.addr.i, align 8
  %this1.i28 = load ptr, ptr %this.addr.i27, align 8
  %21 = load ptr, ptr %location.addr.i, align 8
  store ptr %this1.i28, ptr %this.addr.i.i26, align 8
  store ptr %21, ptr %location.addr.i.i, align 8
  %this1.i.i29 = load ptr, ptr %this.addr.i.i26, align 8
  %22 = load ptr, ptr %location.addr.i.i, align 8
  store ptr %22, ptr %this1.i.i29, align 8
  %23 = load ptr, ptr %retval.i22, align 8
  store ptr %23, ptr %retval.i15, align 8
  br label %_ZN2v89LocalBaseINS_6ObjectEE3NewEPNS_7IsolateEPS1_.exit

_ZN2v89LocalBaseINS_6ObjectEE3NewEPNS_7IsolateEPS1_.exit: ; preds = %if.end.i, %if.then.i
  %24 = load ptr, ptr %retval.i15, align 8
  store ptr %24, ptr %ref.tmp.i, align 8
  store ptr %retval.i12, ptr %this.addr.i18, align 8
  store ptr %ref.tmp.i, ptr %other.addr.i, align 8
  %this1.i19 = load ptr, ptr %this.addr.i18, align 8
  %25 = load ptr, ptr %other.addr.i, align 8
  call void @llvm.memcpy.p0.p0.i64(ptr align 8 %this1.i19, ptr align 8 %25, i64 8, i1 false)
  %26 = load ptr, ptr %retval.i12, align 8
  store ptr %26, ptr %retval.i10, align 8
  %27 = load ptr, ptr %retval.i10, align 8
  store ptr %27, ptr %retval.i, align 8
  %28 = load ptr, ptr %retval.i, align 8
  %coerce.dive = getelementptr inbounds %"class.v8::Local", ptr %agg.tmp, i32 0, i32 0
  %coerce.dive4 = getelementptr inbounds %"class.v8::LocalBase", ptr %coerce.dive, i32 0, i32 0
  %coerce.dive5 = getelementptr inbounds %"class.v8::IndirectHandleBase", ptr %coerce.dive4, i32 0, i32 0
  store ptr %28, ptr %coerce.dive5, align 8
  %29 = load ptr, ptr %res.addr, align 8
  %async_context_ = getelementptr inbounds %"class.node::AsyncResource", ptr %29, i32 0, i32 3
  call void @llvm.memcpy.p0.p0.i64(ptr align 8 %agg.tmp6, ptr align 8 %async_context_, i64 16, i1 false)
  %coerce.dive7 = getelementptr inbounds %"class.v8::Local", ptr %agg.tmp, i32 0, i32 0
  %coerce.dive8 = getelementptr inbounds %"class.v8::LocalBase", ptr %coerce.dive7, i32 0, i32 0
  %coerce.dive9 = getelementptr inbounds %"class.v8::IndirectHandleBase", ptr %coerce.dive8, i32 0, i32 0
  %30 = load ptr, ptr %coerce.dive9, align 8
  %31 = getelementptr inbounds { double, double }, ptr %agg.tmp6, i32 0, i32 0
  %32 = load double, ptr %31, align 8
  %33 = getelementptr inbounds { double, double }, ptr %agg.tmp6, i32 0, i32 1
  %34 = load double, ptr %33, align 8
  call void @_ZN4node13CallbackScopeC2EPNS_11EnvironmentEN2v85LocalINS3_6ObjectEEENS_13async_contextE(ptr noundef nonnull align 8 dereferenceable(56) %this1, ptr noundef %1, ptr %30, double %32, double %34)
  ret void
}