; Function Attrs: mustprogress nounwind uwtable
define dso_local void @_ZN4node13AsyncResource13CallbackScopeC2EPS0_(ptr noundef nonnull align 8 dereferenceable(56) %this, ptr nocapture noundef readonly %res) unnamed_addr #3 align 2 {
entry:
  %env_ = getelementptr inbounds i8, ptr %res, i64 8
  %0 = load ptr, ptr %env_, align 8
  %resource_ = getelementptr inbounds i8, ptr %res, i64 16
  %1 = load ptr, ptr %resource_, align 8
  %cmp.i.i = icmp eq ptr %1, null
  br i1 %cmp.i.i, label %_ZN2v89LocalBaseINS_6ObjectEE3NewEPNS_7IsolateEPS1_.exit, label %if.end.i

if.end.i:                                         ; preds = %entry
  %isolate_.i = getelementptr inbounds i8, ptr %0, i64 88
  %2 = load ptr, ptr %isolate_.i, align 8
  %3 = load i64, ptr %1, align 8
  %call.i = tail call noundef ptr @_ZN2v811HandleScope12CreateHandleEPNS_8internal7IsolateEm(ptr noundef %2, i64 noundef %3) #9
  br label %_ZN2v89LocalBaseINS_6ObjectEE3NewEPNS_7IsolateEPS1_.exit

_ZN2v89LocalBaseINS_6ObjectEE3NewEPNS_7IsolateEPS1_.exit: ; preds = %entry, %if.end.i
  %retval.i15.sroa.0.0 = phi ptr [ %call.i, %if.end.i ], [ null, %entry ]
  %async_context_ = getelementptr inbounds i8, ptr %res, i64 24
  %agg.tmp6.sroa.0.0.copyload = load double, ptr %async_context_, align 8
  %agg.tmp6.sroa.2.0.async_context_.sroa_idx = getelementptr inbounds i8, ptr %res, i64 32
  %agg.tmp6.sroa.2.0.copyload = load double, ptr %agg.tmp6.sroa.2.0.async_context_.sroa_idx, align 8
  tail call void @_ZN4node13CallbackScopeC2EPNS_11EnvironmentEN2v85LocalINS3_6ObjectEEENS_13async_contextE(ptr noundef nonnull align 8 dereferenceable(56) %this, ptr noundef nonnull %0, ptr %retval.i15.sroa.0.0, double %agg.tmp6.sroa.0.0.copyload, double %agg.tmp6.sroa.2.0.copyload) #9
  ret void
}